target datalayout = "e-m:e-p270:32:32-p271:32:32-p272:64:64-i64:64-i128:128-f80:128-n8:16:32:64-S128"
target triple = "x86_64-pc-linux-gnu"

; Function Attrs: inlinehint nounwind uwtable
define internal ptr @hwloc__type_match(ptr noundef %0, ptr noundef %1, i64 noundef %2) #3 {
  %4 = alloca ptr, align 8
  %5 = alloca ptr, align 8
  %6 = alloca ptr, align 8
  %7 = alloca i64, align 8
  %8 = alloca ptr, align 8
  %9 = alloca ptr, align 8
  %10 = alloca i32, align 4
  %11 = alloca i32, align 4
  store ptr %0, ptr %5, align 8, !tbaa !66
  store ptr %1, ptr %6, align 8, !tbaa !66
  store i64 %2, ptr %7, align 8, !tbaa !53
  call void @llvm.lifetime.start.p0(i64 8, ptr %8) #10
  call void @llvm.lifetime.start.p0(i64 8, ptr %9) #10
  call void @llvm.lifetime.start.p0(i64 4, ptr %10) #10
  store i32 0, ptr %10, align 4, !tbaa !8
  %12 = load ptr, ptr %5, align 8, !tbaa !66
  store ptr %12, ptr %8, align 8, !tbaa !66
  %13 = load ptr, ptr %6, align 8, !tbaa !66
  store ptr %13, ptr %9, align 8, !tbaa !66
  br label %14

14:                                               ; preds = %79, %3
  %15 = load ptr, ptr %8, align 8, !tbaa !66
  %16 = load i8, ptr %15, align 1, !tbaa !69
  %17 = icmp ne i8 %16, 0
  br i1 %17, label %26, label %18

18:                                               ; preds = %14
  %19 = load i32, ptr %10, align 4, !tbaa !8
  %20 = zext i32 %19 to i64
  %21 = load i64, ptr %7, align 8, !tbaa !53
  %22 = icmp ult i64 %20, %21
  br i1 %22, label %23, label %24

23:                                               ; preds = %18
  store ptr null, ptr %4, align 8
  store i32 1, ptr %11, align 4
  br label %86

24:                                               ; preds = %18
  %25 = load ptr, ptr %8, align 8, !tbaa !66
  store ptr %25, ptr %4, align 8
  store i32 1, ptr %11, align 4
  br label %86

26:                                               ; preds = %14
  %27 = load ptr, ptr %8, align 8, !tbaa !66
  %28 = load i8, ptr %27, align 1, !tbaa !69
  %29 = sext i8 %28 to i32
  %30 = load ptr, ptr %9, align 8, !tbaa !66
  %31 = load i8, ptr %30, align 1, !tbaa !69
  %32 = sext i8 %31 to i32
  %33 = icmp ne i32 %29, %32
  br i1 %33, label %34, label %78

34:                                               ; preds = %26
  %35 = load ptr, ptr %8, align 8, !tbaa !66
  %36 = load i8, ptr %35, align 1, !tbaa !69
  %37 = sext i8 %36 to i32
  %38 = load ptr, ptr %9, align 8, !tbaa !66
  %39 = load i8, ptr %38, align 1, !tbaa !69
  %40 = sext i8 %39 to i32
  %41 = add nsw i32 %40, 65
  %42 = sub nsw i32 %41, 97
  %43 = icmp ne i32 %37, %42
  br i1 %43, label %44, label %78

44:                                               ; preds = %34
  %45 = load ptr, ptr %8, align 8, !tbaa !66
  %46 = load i8, ptr %45, align 1, !tbaa !69
  %47 = sext i8 %46 to i32
  %48 = icmp sge i32 %47, 97
  br i1 %48, label %49, label %54

49:                                               ; preds = %44
  %50 = load ptr, ptr %8, align 8, !tbaa !66
  %51 = load i8, ptr %50, align 1, !tbaa !69
  %52 = sext i8 %51 to i32
  %53 = icmp sle i32 %52, 122
  br i1 %53, label %69, label %54

54:                                               ; preds = %49, %44
  %55 = load ptr, ptr %8, align 8, !tbaa !66
  %56 = load i8, ptr %55, align 1, !tbaa !69
  %57 = sext i8 %56 to i32
  %58 = icmp sge i32 %57, 65
  br i1 %58, label %59, label %64

59:                                               ; preds = %54
  %60 = load ptr, ptr %8, align 8, !tbaa !66
  %61 = load i8, ptr %60, align 1, !tbaa !69
  %62 = sext i8 %61 to i32
  %63 = icmp sle i32 %62, 90
  br i1 %63, label %69, label %64

64:                                               ; preds = %59, %54
  %65 = load ptr, ptr %8, align 8, !tbaa !66
  %66 = load i8, ptr %65, align 1, !tbaa !69
  %67 = sext i8 %66 to i32
  %68 = icmp eq i32 %67, 45
  br i1 %68, label %69, label %70

69:                                               ; preds = %64, %59, %49
  store ptr null, ptr %4, align 8
  store i32 1, ptr %11, align 4
  br label %86

70:                                               ; preds = %64
  %71 = load i32, ptr %10, align 4, !tbaa !8
  %72 = zext i32 %71 to i64
  %73 = load i64, ptr %7, align 8, !tbaa !53
  %74 = icmp ult i64 %72, %73
  br i1 %74, label %75, label %76

75:                                               ; preds = %70
  store ptr null, ptr %4, align 8
  store i32 1, ptr %11, align 4
  br label %86

76:                                               ; preds = %70
  %77 = load ptr, ptr %8, align 8, !tbaa !66
  store ptr %77, ptr %4, align 8
  store i32 1, ptr %11, align 4
  br label %86

78:                                               ; preds = %34, %26
  br label %79

79:                                               ; preds = %78
  %80 = load i32, ptr %10, align 4, !tbaa !8
  %81 = add i32 %80, 1
  store i32 %81, ptr %10, align 4, !tbaa !8
  %82 = load ptr, ptr %8, align 8, !tbaa !66
  %83 = getelementptr inbounds nuw i8, ptr %82, i32 1
  store ptr %83, ptr %8, align 8, !tbaa !66
  %84 = load ptr, ptr %9, align 8, !tbaa !66
  %85 = getelementptr inbounds nuw i8, ptr %84, i32 1
  store ptr %85, ptr %9, align 8, !tbaa !66
  br label %14

86:                                               ; preds = %76, %75, %69, %24, %23
  call void @llvm.lifetime.end.p0(i64 4, ptr %10) #10
  call void @llvm.lifetime.end.p0(i64 8, ptr %9) #10
  call void @llvm.lifetime.end.p0(i64 8, ptr %8) #10
  %87 = load ptr, ptr %4, align 8
  ret ptr %87
}