; Function Attrs: inlinehint nofree norecurse nosync nounwind memory(argmem: read) uwtable
define internal fastcc ptr @hwloc__type_match(ptr noundef readonly captures(ret: address, provenance) %0, ptr noundef readonly captures(none) %1, i64 noundef range(i64 0, 9) %2) unnamed_addr #9 {
  %4 = load i8, ptr %0, align 1, !tbaa !60
  %.not39 = icmp eq i8 %4, 0
  br i1 %.not39, label %._crit_edge, label %.lr.ph

._crit_edge.loopexit:                             ; preds = %20
  %5 = zext i32 %21 to i64
  br label %._crit_edge

._crit_edge:                                      ; preds = %._crit_edge.loopexit, %3
  %.022.lcssa = phi ptr [ %0, %3 ], [ %22, %._crit_edge.loopexit ]
  %.0.lcssa = phi i64 [ 0, %3 ], [ %5, %._crit_edge.loopexit ]
  %6 = icmp samesign ugt i64 %2, %.0.lcssa
  %..022 = select i1 %6, ptr null, ptr %.022.lcssa
  br label %25

.lr.ph:                                           ; preds = %3, %20
  %7 = phi i8 [ %24, %20 ], [ %4, %3 ]
  %.042 = phi i32 [ %21, %20 ], [ 0, %3 ]
  %.02141 = phi ptr [ %23, %20 ], [ %1, %3 ]
  %.02240 = phi ptr [ %22, %20 ], [ %0, %3 ]
  %8 = load i8, ptr %.02141, align 1, !tbaa !60
  %.not28 = icmp eq i8 %7, %8
  %9 = sext i8 %7 to i32
  %10 = sext i8 %8 to i32
  %11 = add nsw i32 %10, -32
  %.not29 = icmp eq i32 %11, %9
  %or.cond = select i1 %.not28, i1 true, i1 %.not29
  br i1 %or.cond, label %20, label %12

12:                                               ; preds = %.lr.ph
  %13 = add i8 %7, -97
  %or.cond32 = icmp ult i8 %13, 26
  br i1 %or.cond32, label %25, label %14

14:                                               ; preds = %12
  %15 = add i8 %7, -65
  %or.cond33 = icmp ult i8 %15, 26
  %16 = icmp eq i8 %7, 45
  %or.cond35 = or i1 %16, %or.cond33
  br i1 %or.cond35, label %25, label %17

17:                                               ; preds = %14
  %18 = zext i32 %.042 to i64
  %19 = icmp samesign ugt i64 %2, %18
  %..02234 = select i1 %19, ptr null, ptr %.02240
  br label %25

20:                                               ; preds = %.lr.ph
  %21 = add i32 %.042, 1
  %22 = getelementptr inbounds nuw i8, ptr %.02240, i64 1
  %23 = getelementptr inbounds nuw i8, ptr %.02141, i64 1
  %24 = load i8, ptr %22, align 1, !tbaa !60
  %.not = icmp eq i8 %24, 0
  br i1 %.not, label %._crit_edge.loopexit, label %.lr.ph

25:                                               ; preds = %17, %12, %14, %._crit_edge
  %.023 = phi ptr [ %..022, %._crit_edge ], [ null, %14 ], [ null, %12 ], [ %..02234, %17 ]
  ret ptr %.023
}